target datalayout = "e-m:e-p270:32:32-p271:32:32-p272:64:64-i64:64-i128:128-f80:128-n8:16:32:64-S128"
target triple = "x86_64-pc-linux-gnu"

%struct.object_id = type { [32 x i8], i32 }
%struct.checkout = type { ptr, ptr, i32, ptr, ptr, %struct.checkout_metadata, i8 }
%struct.checkout_metadata = type { ptr, %struct.object_id, %struct.object_id }

; Function Attrs: nounwind uwtable
define dso_local i32 @fstat_checkout_output(i32 noundef %0, ptr noundef %1, ptr noundef %2) #0 {
  %4 = alloca i32, align 4
  %5 = alloca i32, align 4
  %6 = alloca ptr, align 8
  %7 = alloca ptr, align 8
  store i32 %0, ptr %5, align 4, !tbaa !16
  store ptr %1, ptr %6, align 8, !tbaa !18
  store ptr %2, ptr %7, align 8, !tbaa !20
  %8 = load ptr, ptr %6, align 8, !tbaa !18
  %9 = getelementptr inbounds nuw %struct.checkout, ptr %8, i32 0, i32 6
  %10 = load i8, ptr %9, align 8
  %11 = lshr i8 %10, 4
  %12 = and i8 %11, 1
  %13 = zext i8 %12 to i32
  %14 = icmp ne i32 %13, 0
  br i1 %14, label %15, label %27

15:                                               ; preds = %3
  %16 = load ptr, ptr %6, align 8, !tbaa !18
  %17 = getelementptr inbounds nuw %struct.checkout, ptr %16, i32 0, i32 2
  %18 = load i32, ptr %17, align 8, !tbaa !22
  %19 = icmp ne i32 %18, 0
  br i1 %19, label %27, label %20

20:                                               ; preds = %15
  %21 = load i32, ptr %5, align 4, !tbaa !16
  %22 = load ptr, ptr %7, align 8, !tbaa !20
  %23 = call i32 @fstat64(i32 noundef %21, ptr noundef %22) #10
  %24 = icmp ne i32 %23, 0
  %25 = xor i1 %24, true
  %26 = zext i1 %25 to i32
  store i32 %26, ptr %4, align 4
  br label %28

27:                                               ; preds = %15, %3
  store i32 0, ptr %4, align 4
  br label %28

28:                                               ; preds = %27, %20
  %29 = load i32, ptr %4, align 4
  ret i32 %29
}