; Function Attrs: nofree nounwind uwtable
define dso_local range(i32 0, 2) i32 @fstat_checkout_output(i32 noundef %0, ptr noundef readonly captures(none) %1, ptr noundef captures(none) %2) local_unnamed_addr #4 {
  %4 = getelementptr inbounds nuw i8, ptr %1, i64 120
  %5 = load i8, ptr %4, align 8
  %6 = and i8 %5, 16
  %.not = icmp eq i8 %6, 0
  br i1 %.not, label %13, label %7

7:                                                ; preds = %3
  %8 = getelementptr inbounds nuw i8, ptr %1, i64 16
  %9 = load i32, ptr %8, align 8, !tbaa !13
  %.not4 = icmp eq i32 %9, 0
  br i1 %.not4, label %10, label %13

10:                                               ; preds = %7
  %11 = tail call i32 @fstat64(i32 noundef %0, ptr noundef %2) #16
  %.not5 = icmp eq i32 %11, 0
  %12 = zext i1 %.not5 to i32
  br label %13

13:                                               ; preds = %3, %7, %10
  %.0 = phi i32 [ %12, %10 ], [ 0, %7 ], [ 0, %3 ]
  ret i32 %.0
}